	.text
	.file	"quicksort.c"
	.globl	swap                            # -- Begin function swap
	.p2align	4, 0x90
	.type	swap,@function
swap:                                   # @swap
	.cfi_startproc
# %bb.0:
	pushq	%rbp
	.cfi_def_cfa_offset 16
	.cfi_offset %rbp, -16
	movq	%rsp, %rbp
	.cfi_def_cfa_register %rbp
	movq	%rdi, -8(%rbp)
	movq	%rsi, -16(%rbp)
	movq	-8(%rbp), %rax
	movl	(%rax), %eax
	movl	%eax, -20(%rbp)
	movq	-16(%rbp), %rax
	movl	(%rax), %ecx
	movq	-8(%rbp), %rax
	movl	%ecx, (%rax)
	movl	-20(%rbp), %ecx
	movq	-16(%rbp), %rax
	movl	%ecx, (%rax)
	popq	%rbp
	.cfi_def_cfa %rsp, 8
	retq
.Lfunc_end0:
	.size	swap, .Lfunc_end0-swap
	.cfi_endproc
                                        # -- End function
	.globl	partition                       # -- Begin function partition
	.p2align	4, 0x90
	.type	partition,@function
partition:                              # @partition
	.cfi_startproc
# %bb.0:
	pushq	%rbp
	.cfi_def_cfa_offset 16
	.cfi_offset %rbp, -16
	movq	%rsp, %rbp
	.cfi_def_cfa_register %rbp
	subq	$32, %rsp
	movq	%rdi, -8(%rbp)
	movl	%esi, -12(%rbp)
	movl	%edx, -16(%rbp)
	movq	-8(%rbp), %rax
	movslq	-16(%rbp), %rcx
	movl	(%rax,%rcx,4), %eax
	movl	%eax, -20(%rbp)
	movl	-12(%rbp), %eax
	subl	$1, %eax
	movl	%eax, -24(%rbp)
	movl	-12(%rbp), %eax
	movl	%eax, -28(%rbp)
.LBB1_1:                                # =>This Inner Loop Header: Depth=1
	movl	-28(%rbp), %eax
	cmpl	-16(%rbp), %eax
	jge	.LBB1_6
# %bb.2:                                #   in Loop: Header=BB1_1 Depth=1
	movq	-8(%rbp), %rax
	movslq	-28(%rbp), %rcx
	movl	(%rax,%rcx,4), %eax
	cmpl	-20(%rbp), %eax
	jge	.LBB1_4
# %bb.3:                                #   in Loop: Header=BB1_1 Depth=1
	movl	-24(%rbp), %eax
	addl	$1, %eax
	movl	%eax, -24(%rbp)
	movq	-8(%rbp), %rdi
	movslq	-24(%rbp), %rax
	shlq	$2, %rax
	addq	%rax, %rdi
	movq	-8(%rbp), %rsi
	movslq	-28(%rbp), %rax
	shlq	$2, %rax
	addq	%rax, %rsi
	callq	swap
.LBB1_4:                                #   in Loop: Header=BB1_1 Depth=1
	jmp	.LBB1_5
.LBB1_5:                                #   in Loop: Header=BB1_1 Depth=1
	movl	-28(%rbp), %eax
	addl	$1, %eax
	movl	%eax, -28(%rbp)
	jmp	.LBB1_1
.LBB1_6:
	movq	-8(%rbp), %rdi
	movl	-24(%rbp), %eax
	addl	$1, %eax
	cltq
	shlq	$2, %rax
	addq	%rax, %rdi
	movq	-8(%rbp), %rsi
	movslq	-16(%rbp), %rax
	shlq	$2, %rax
	addq	%rax, %rsi
	callq	swap
	movl	-24(%rbp), %eax
	addl	$1, %eax
	addq	$32, %rsp
	popq	%rbp
	.cfi_def_cfa %rsp, 8
	retq
.Lfunc_end1:
	.size	partition, .Lfunc_end1-partition
	.cfi_endproc
                                        # -- End function
	.globl	quicksort                       # -- Begin function quicksort
	.p2align	4, 0x90
	.type	quicksort,@function
quicksort:                              # @quicksort
	.cfi_startproc
# %bb.0:
	pushq	%rbp
	.cfi_def_cfa_offset 16
	.cfi_offset %rbp, -16
	movq	%rsp, %rbp
	.cfi_def_cfa_register %rbp
	subq	$32, %rsp
	movq	%rdi, -8(%rbp)
	movl	%esi, -12(%rbp)
	movl	%edx, -16(%rbp)
	movl	-12(%rbp), %eax
	cmpl	-16(%rbp), %eax
	jge	.LBB2_2
# %bb.1:
	movq	-8(%rbp), %rdi
	movl	-12(%rbp), %esi
	movl	-16(%rbp), %edx
	callq	partition
	movl	%eax, -20(%rbp)
	movq	-8(%rbp), %rdi
	movl	-12(%rbp), %esi
	movl	-20(%rbp), %edx
	subl	$1, %edx
	callq	quicksort
	movq	-8(%rbp), %rdi
	movl	-20(%rbp), %esi
	addl	$1, %esi
	movl	-16(%rbp), %edx
	callq	quicksort
.LBB2_2:
	addq	$32, %rsp
	popq	%rbp
	.cfi_def_cfa %rsp, 8
	retq
.Lfunc_end2:
	.size	quicksort, .Lfunc_end2-quicksort
	.cfi_endproc
                                        # -- End function
	.ident	"Ubuntu clang version 18.1.3 (1ubuntu1)"
	.section	".note.GNU-stack","",@progbits
	.addrsig
	.addrsig_sym swap
	.addrsig_sym partition
	.addrsig_sym quicksort
